Certificate:
    Data:
        Version: 3 (0x2)
        Serial Number:
            75:2c:14:dd:5b:68:3b:70:9c:b2:d0:ba:3b:92:e1:67:e3:87:97:be
        Signature Algorithm: sha256WithRSAEncryption
        Issuer: CN = localhost
        Validity
            Not Before: Jul  1 10:40:48 2024 GMT
            Not After : Jul 31 10:40:48 2024 GMT
        Subject: CN = localhost
        Subject Public Key Info:
            Public Key Algorithm: rsaEncryption
                RSA Public-Key: (2048 bit)
                Modulus:
                    00:ad:ee:61:b3:55:48:db:a0:41:c9:c2:2d:ec:05:
                    b4:d2:d7:00:a8:07:3e:9c:ae:24:d5:f4:b8:51:6c:
                    65:c3:4b:f8:aa:1f:df:e5:4f:58:7d:48:ca:39:9f:
                    76:39:bd:54:cc:e1:9c:d8:7f:72:83:1c:e4:8f:02:
                    68:19:78:32:a6:e6:b9:24:a3:5b:e5:4b:a7:e7:6d:
                    c7:3a:1c:24:7f:03:47:b8:1c:93:dc:46:59:11:3a:
                    17:67:8a:d1:90:c8:74:eb:d5:44:50:d8:d6:a5:49:
                    86:57:34:90:ee:c6:8d:4a:be:21:dd:b2:e5:5b:d4:
                    2e:6d:88:65:2c:91:8c:b7:2e:6b:3d:94:34:64:88:
                    0c:83:1a:e0:4b:e7:34:f6:97:ba:aa:a5:b3:9b:62:
                    97:19:0f:0a:ba:b9:8d:6f:71:42:e8:b0:9b:32:46:
                    b3:96:14:6e:85:33:f1:ce:60:81:32:07:21:99:c8:
                    96:41:42:f0:b4:32:97:25:e6:b4:81:4a:2e:f8:da:
                    70:32:1c:ce:40:39:08:e9:8c:6b:f1:13:73:38:0b:
                    0c:63:02:35:b1:c4:70:f1:ef:d1:c2:1f:2f:63:b5:
                    e7:16:ff:9c:ad:e1:33:5b:f8:c7:c9:0d:3d:4d:30:
                    92:68:32:1a:57:af:23:9e:00:27:8a:48:18:52:f0:
                    2b:93
                Exponent: 65537 (0x10001)
        X509v3 extensions:
            X509v3 Subject Key Identifier: 
                E5:B0:A5:65:94:94:9F:21:83:4B:04:0E:E6:77:7D:7D:01:59:C8:8F
            X509v3 Authority Key Identifier: 
                keyid:E5:B0:A5:65:94:94:9F:21:83:4B:04:0E:E6:77:7D:7D:01:59:C8:8F

            X509v3 Basic Constraints: critical
                CA:TRUE
    Signature Algorithm: sha256WithRSAEncryption
         33:39:e9:a8:d0:e1:f5:0d:16:95:62:bc:f1:a2:49:a4:2b:93:
         8f:68:1e:38:f6:27:6a:ec:1e:ce:88:78:f5:0d:e7:9e:00:67:
         6c:af:77:3c:ca:5b:25:ac:f2:15:57:62:c0:41:8b:39:27:a5:
         f6:e5:52:4d:e7:9a:05:64:06:e5:c5:a6:7c:07:77:3b:f7:f3:
         8b:e2:98:c3:c6:9d:87:42:02:8f:49:af:85:b6:f8:c7:59:f7:
         b4:78:cf:7d:dd:44:1d:ae:4d:50:1c:ed:39:67:29:f1:d5:81:
         e1:ca:72:a7:92:f3:11:49:e1:8d:26:cf:2c:cc:df:ac:19:56:
         b3:48:41:a5:cf:4f:03:11:75:7f:3a:73:a4:c3:56:de:c3:2a:
         d7:d1:00:bc:8c:d9:f3:c5:51:7b:18:eb:95:a3:23:01:70:14:
         22:e7:de:5c:03:ba:c6:78:a5:3b:c7:25:8d:f6:b7:5b:a0:da:
         9a:30:40:92:b6:ab:1a:df:6b:a8:db:d5:62:25:ce:f7:4c:eb:
         a4:33:15:03:0d:63:56:8f:13:6d:ae:35:66:44:ac:c4:1e:8a:
         02:b3:6f:ea:a4:82:f1:cb:78:67:a7:52:cc:38:3f:2f:ae:61:
         25:fe:b8:28:aa:20:bb:e8:4a:72:c8:20:9a:ea:65:ac:9f:3c:
         e9:a5:1f:44
-----BEGIN CERTIFICATE-----
MIIDCTCCAfGgAwIBAgIUdSwU3VtoO3CcstC6O5LhZ+OHl74wDQYJKoZIhvcNAQEL
BQAwFDESMBAGA1UEAwwJbG9jYWxob3N0MB4XDTI0MDcwMTEwNDA0OFoXDTI0MDcz
MTEwNDA0OFowFDESMBAGA1UEAwwJbG9jYWxob3N0MIIBIjANBgkqhkiG9w0BAQEF
AAOCAQ8AMIIBCgKCAQEAre5hs1VI26BBycIt7AW00tcAqAc+nK4k1fS4UWxlw0v4
qh/f5U9YfUjKOZ92Ob1UzOGc2H9ygxzkjwJoGXgypua5JKNb5Uun523HOhwkfwNH
uByT3EZZEToXZ4rRkMh069VEUNjWpUmGVzSQ7saNSr4h3bLlW9QubYhlLJGMty5r
PZQ0ZIgMgxrgS+c09pe6qqWzm2KXGQ8KurmNb3FC6LCbMkazlhRuhTPxzmCBMgch
mciWQULwtDKXJea0gUou+NpwMhzOQDkI6Yxr8RNzOAsMYwI1scRw8e/Rwh8vY7Xn
Fv+creEzW/jHyQ09TTCSaDIaV68jngAnikgYUvArkwIDAQABo1MwUTAdBgNVHQ4E
FgQU5bClZZSUnyGDSwQO5nd9fQFZyI8wHwYDVR0jBBgwFoAU5bClZZSUnyGDSwQO
5nd9fQFZyI8wDwYDVR0TAQH/BAUwAwEB/zANBgkqhkiG9w0BAQsFAAOCAQEAMznp
qNDh9Q0WlWK88aJJpCuTj2geOPYnauwezoh49Q3nngBnbK93PMpbJazyFVdiwEGL
OSel9uVSTeeaBWQG5cWmfAd3O/fzi+KYw8adh0ICj0mvhbb4x1n3tHjPfd1EHa5N
UBztOWcp8dWB4cpyp5LzEUnhjSbPLMzfrBlWs0hBpc9PAxF1fzpzpMNW3sMq19EA
vIzZ88VRexjrlaMjAXAUIufeXAO6xnilO8cljfa3W6DamjBAkrarGt9rqNvVYiXO
90zrpDMVAw1jVo8Tba41ZkSsxB6KArNv6qSC8ct4Z6dSzDg/L65hJf64KKogu+hK
csggmuplrJ886aUfRA==
-----END CERTIFICATE-----
